; Function Attrs: mustprogress nofree nounwind willreturn uwtable
define dso_local void @_ZN5cmsys20CommandLineArguments16PopulateVariableEPiRKNSt7__cxx1112basic_stringIcSt11char_traitsIcESaIcEEE(ptr noundef nonnull readnone align 8 captures(none) dereferenceable(45) %0, ptr noundef writeonly captures(none) initializes((0, 4)) %1, ptr noundef nonnull readonly align 8 captures(none) dereferenceable(32) %2) local_unnamed_addr #15 align 2 personality ptr @__gxx_personality_v0 {
  %4 = alloca ptr, align 8
  call void @llvm.lifetime.start.p0(i64 8, ptr nonnull %4) #29
  store ptr null, ptr %4, align 8, !tbaa !49
  %5 = load ptr, ptr %2, align 8, !tbaa !29
  %6 = call i64 @strtol(ptr noundef %5, ptr noundef nonnull %4, i32 noundef 10) #29
  %7 = trunc i64 %6 to i32
  store i32 %7, ptr %1, align 4, !tbaa !92
  call void @llvm.lifetime.end.p0(i64 8, ptr nonnull %4) #29
  ret void
}